target datalayout = "e-m:e-p270:32:32-p271:32:32-p272:64:64-i64:64-i128:128-f80:128-n8:16:32:64-S128"
target triple = "x86_64-pc-linux-gnu"

%struct.t_atoms = type { i32, ptr, ptr, ptr, ptr, i32, ptr, ptr, i8, i8, i8, i8, i8 }
%class.ChainIdFiller = type <{ i32, i8, i8, [2 x i8] }>
%struct.t_resinfo = type { ptr, i32, i8, i32, i8, ptr }

; Function Attrs: mustprogress nounwind uwtable
define void @_ZNK13ChainIdFiller13clearIfNeededEP7t_atoms(ptr noundef nonnull align 4 dereferenceable(6) %0, ptr noundef %1) #5 align 2 {
  %3 = alloca ptr, align 8
  %4 = alloca ptr, align 8
  %5 = alloca i32, align 4
  store ptr %0, ptr %3, align 8, !tbaa !103
  store ptr %1, ptr %4, align 8, !tbaa !11
  %6 = load ptr, ptr %3, align 8
  %7 = getelementptr inbounds nuw %class.ChainIdFiller, ptr %6, i32 0, i32 1
  %8 = load i8, ptr %7, align 4, !tbaa !109
  %9 = sext i8 %8 to i32
  %10 = icmp eq i32 %9, 66
  br i1 %10, label %11, label %31

11:                                               ; preds = %2
  call void @llvm.lifetime.start.p0(i64 4, ptr %5) #12
  store i32 0, ptr %5, align 4, !tbaa !17
  br label %12

12:                                               ; preds = %27, %11
  %13 = load i32, ptr %5, align 4, !tbaa !17
  %14 = load ptr, ptr %4, align 8, !tbaa !11
  %15 = getelementptr inbounds nuw %struct.t_atoms, ptr %14, i32 0, i32 5
  %16 = load i32, ptr %15, align 8, !tbaa !122
  %17 = icmp slt i32 %13, %16
  br i1 %17, label %19, label %18

18:                                               ; preds = %12
  call void @llvm.lifetime.end.p0(i64 4, ptr %5) #12
  br label %30

19:                                               ; preds = %12
  %20 = load ptr, ptr %4, align 8, !tbaa !11
  %21 = getelementptr inbounds nuw %struct.t_atoms, ptr %20, i32 0, i32 6
  %22 = load ptr, ptr %21, align 8, !tbaa !111
  %23 = load i32, ptr %5, align 4, !tbaa !17
  %24 = sext i32 %23 to i64
  %25 = getelementptr inbounds %struct.t_resinfo, ptr %22, i64 %24
  %26 = getelementptr inbounds nuw %struct.t_resinfo, ptr %25, i32 0, i32 4
  store i8 32, ptr %26, align 4, !tbaa !119
  br label %27

27:                                               ; preds = %19
  %28 = load i32, ptr %5, align 4, !tbaa !17
  %29 = add nsw i32 %28, 1
  store i32 %29, ptr %5, align 4, !tbaa !17
  br label %12, !llvm.loop !123

30:                                               ; preds = %18
  br label %31

31:                                               ; preds = %30, %2
  ret void
}