; Function Attrs: mustprogress nofree norecurse nosync nounwind memory(write, argmem: readwrite, inaccessiblemem: none) uwtable
define void @_ZNK13ChainIdFiller13clearIfNeededEP7t_atoms(ptr noundef nonnull readonly align 4 captures(none) dereferenceable(6) %0, ptr noundef readonly captures(none) %1) local_unnamed_addr #11 align 2 {
  %3 = getelementptr inbounds nuw i8, ptr %0, i64 4
  %4 = load i8, ptr %3, align 4, !tbaa !50
  %5 = icmp eq i8 %4, 66
  br i1 %5, label %.preheader, label %.loopexit

.preheader:                                       ; preds = %2
  %6 = getelementptr inbounds nuw i8, ptr %1, i64 40
  %7 = load i32, ptr %6, align 8, !tbaa !64
  %8 = icmp sgt i32 %7, 0
  br i1 %8, label %.lr.ph, label %.loopexit

.lr.ph:                                           ; preds = %.preheader
  %9 = getelementptr inbounds nuw i8, ptr %1, i64 48
  %10 = load ptr, ptr %9, align 8, !tbaa !52
  %wide.trip.count = zext nneg i32 %7 to i64
  br label %11

11:                                               ; preds = %.lr.ph, %11
  %indvars.iv = phi i64 [ 0, %.lr.ph ], [ %indvars.iv.next, %11 ]
  %12 = getelementptr inbounds nuw %struct.t_resinfo, ptr %10, i64 %indvars.iv, i32 4
  store i8 32, ptr %12, align 4, !tbaa !61
  %indvars.iv.next = add nuw nsw i64 %indvars.iv, 1
  %exitcond.not = icmp eq i64 %indvars.iv.next, %wide.trip.count
  br i1 %exitcond.not, label %.loopexit, label %11, !llvm.loop !65

.loopexit:                                        ; preds = %11, %.preheader, %2
  ret void
}